target datalayout = "e-m:e-p270:32:32-p271:32:32-p272:64:64-i64:64-i128:128-f80:128-n8:16:32:64-S128"
target triple = "x86_64-pc-linux-gnu"

%struct.listNode = type { ptr, ptr, ptr }

; Function Attrs: nounwind uwtable
define dso_local ptr @clusterShardNodeIteratorNext(ptr noundef %0) #0 {
  %2 = alloca ptr, align 8
  %3 = alloca ptr, align 8
  %4 = alloca ptr, align 8
  %5 = alloca i32, align 4
  store ptr %0, ptr %3, align 8, !tbaa !47
  call void @llvm.lifetime.start.p0(i64 8, ptr %4) #16
  %6 = load ptr, ptr %3, align 8, !tbaa !47
  %7 = call ptr @listNext(ptr noundef %6)
  store ptr %7, ptr %4, align 8, !tbaa !200
  %8 = load ptr, ptr %4, align 8, !tbaa !200
  %9 = icmp eq ptr %8, null
  br i1 %9, label %10, label %11

10:                                               ; preds = %1
  store ptr null, ptr %2, align 8
  store i32 1, ptr %5, align 4
  br label %15

11:                                               ; preds = %1
  %12 = load ptr, ptr %4, align 8, !tbaa !200
  %13 = getelementptr inbounds nuw %struct.listNode, ptr %12, i32 0, i32 2
  %14 = load ptr, ptr %13, align 8, !tbaa !201
  store ptr %14, ptr %2, align 8
  store i32 1, ptr %5, align 4
  br label %15

15:                                               ; preds = %11, %10
  call void @llvm.lifetime.end.p0(i64 8, ptr %4) #16
  %16 = load ptr, ptr %2, align 8
  ret ptr %16
}