; Function Attrs: nounwind uwtable
define dso_local ptr @clusterShardNodeIteratorNext(ptr noundef %0) local_unnamed_addr #3 {
  %2 = tail call ptr @listNext(ptr noundef %0) #33
  %3 = icmp eq ptr %2, null
  br i1 %3, label %7, label %4

4:                                                ; preds = %1
  %5 = getelementptr inbounds nuw i8, ptr %2, i64 16
  %6 = load ptr, ptr %5, align 8, !tbaa !176
  br label %7

7:                                                ; preds = %1, %4
  %.0 = phi ptr [ %6, %4 ], [ null, %1 ]
  ret ptr %.0
}